; Function Attrs: mustprogress uwtable
define hidden void @_ZN2dt6solver9new_eq_ehERKN3euf5th_eqE(ptr noundef nonnull align 8 dereferenceable(472) %0, ptr noundef nonnull readonly align 8 captures(none) dereferenceable(32) %1) unnamed_addr #3 align 2 {
  %3 = getelementptr inbounds nuw i8, ptr %0, i64 104
  %4 = load i32, ptr %3, align 8, !tbaa !533
  %.not1.i = icmp eq i32 %4, 0
  br i1 %.not1.i, label %_ZN3euf13th_euf_solver10force_pushEv.exit, label %.lr.ph.i

.lr.ph.i:                                         ; preds = %2, %.lr.ph.i
  %5 = load ptr, ptr %0, align 8, !tbaa !388
  %6 = getelementptr inbounds nuw i8, ptr %5, i64 512
  %7 = load ptr, ptr %6, align 8
  tail call void %7(ptr noundef nonnull align 8 dereferenceable(108) %0)
  %8 = load i32, ptr %3, align 8, !tbaa !533
  %9 = add i32 %8, -1
  store i32 %9, ptr %3, align 8, !tbaa !533
  %.not.i = icmp eq i32 %9, 0
  br i1 %.not.i, label %_ZN3euf13th_euf_solver10force_pushEv.exit, label %.lr.ph.i, !llvm.loop !534

_ZN3euf13th_euf_solver10force_pushEv.exit:        ; preds = %.lr.ph.i, %2
  %10 = getelementptr inbounds nuw i8, ptr %0, i64 320
  %11 = getelementptr inbounds nuw i8, ptr %1, i64 4
  %12 = load i32, ptr %11, align 4, !tbaa !535
  %13 = getelementptr inbounds nuw i8, ptr %1, i64 8
  %14 = load i32, ptr %13, align 8, !tbaa !537
  tail call void @_ZN10union_findIN2dt6solverEE5mergeEjj(ptr noundef nonnull align 8 dereferenceable(56) %10, i32 noundef %12, i32 noundef %14)
  ret void
}